target datalayout = "e-m:e-p270:32:32-p271:32:32-p272:64:64-i64:64-i128:128-f80:128-n8:16:32:64-S128"
target triple = "x86_64-pc-linux-gnu"

%class.TransTableS = type <{ %class.TransTable, [14 x i64], %"struct.TransTableS::statsResetsType", [4 x i8], [5 x %"struct.TransTableS::winCardType"], i32, i32, i64, i64, i64, i32, i32, i32, i32, i32, i8, [3 x i8], i32, [4 x i8], ptr, [14 x [4 x ptr]], ptr, ptr, [14 x [4 x ptr]], ptr, ptr, [14 x [4 x ptr]], i32, i32, [14 x [4 x i32]], [14 x [4 x i32]], %"class.std::vector", [14 x i64], i32, [4 x i8] }>
%class.TransTable = type { ptr }
%"struct.TransTableS::statsResetsType" = type { i32, [6 x i32] }
%"struct.TransTableS::winCardType" = type { i32, i32, ptr, ptr, ptr, ptr }
%"class.std::vector" = type { %"struct.std::_Vector_base" }
%"struct.std::_Vector_base" = type { %"struct.std::_Vector_base<std::__cxx11::basic_string<char>, std::allocator<std::__cxx11::basic_string<char>>>::_Vector_impl" }
%"struct.std::_Vector_base<std::__cxx11::basic_string<char>, std::allocator<std::__cxx11::basic_string<char>>>::_Vector_impl" = type { %"struct.std::_Vector_base<std::__cxx11::basic_string<char>, std::allocator<std::__cxx11::basic_string<char>>>::_Vector_impl_data" }
%"struct.std::_Vector_base<std::__cxx11::basic_string<char>, std::allocator<std::__cxx11::basic_string<char>>>::_Vector_impl_data" = type { ptr, ptr, ptr }

; Function Attrs: mustprogress nounwind uwtable
define void @_ZN11TransTableS10AddNodeSetEv(ptr noundef nonnull align 8 dereferenceable(2396) %0) #5 align 2 {
  %2 = alloca ptr, align 8
  store ptr %0, ptr %2, align 8
  %3 = load ptr, ptr %2, align 8
  %4 = getelementptr inbounds nuw %class.TransTableS, ptr %3, i32 0, i32 27
  %5 = load i32, ptr %4, align 8
  %6 = getelementptr inbounds nuw %class.TransTableS, ptr %3, i32 0, i32 5
  %7 = load i32, ptr %6, align 8
  %8 = icmp sge i32 %5, %7
  br i1 %8, label %9, label %64

9:                                                ; preds = %1
  %10 = getelementptr inbounds nuw %class.TransTableS, ptr %3, i32 0, i32 8
  %11 = load i64, ptr %10, align 8
  %12 = getelementptr inbounds nuw %class.TransTableS, ptr %3, i32 0, i32 11
  %13 = load i32, ptr %12, align 4
  %14 = sext i32 %13 to i64
  %15 = add i64 %11, %14
  %16 = getelementptr inbounds nuw %class.TransTableS, ptr %3, i32 0, i32 7
  %17 = load i64, ptr %16, align 8
  %18 = icmp ugt i64 %15, %17
  br i1 %18, label %25, label %19

19:                                               ; preds = %9
  %20 = getelementptr inbounds nuw %class.TransTableS, ptr %3, i32 0, i32 14
  %21 = load i32, ptr %20, align 8
  %22 = getelementptr inbounds nuw %class.TransTableS, ptr %3, i32 0, i32 12
  %23 = load i32, ptr %22, align 8
  %24 = icmp sge i32 %21, %23
  br i1 %24, label %25, label %27

25:                                               ; preds = %19, %9
  %26 = getelementptr inbounds nuw %class.TransTableS, ptr %3, i32 0, i32 15
  store i8 1, ptr %26, align 4
  br label %63

27:                                               ; preds = %19
  %28 = getelementptr inbounds nuw %class.TransTableS, ptr %3, i32 0, i32 14
  %29 = load i32, ptr %28, align 8
  %30 = add nsw i32 %29, 1
  store i32 %30, ptr %28, align 8
  %31 = getelementptr inbounds nuw %class.TransTableS, ptr %3, i32 0, i32 5
  store i32 50000, ptr %31, align 8
  %32 = call noalias ptr @malloc(i64 noundef 400008) #18
  %33 = getelementptr inbounds nuw %class.TransTableS, ptr %3, i32 0, i32 22
  %34 = load ptr, ptr %33, align 8
  %35 = getelementptr inbounds nuw %class.TransTableS, ptr %3, i32 0, i32 14
  %36 = load i32, ptr %35, align 8
  %37 = sext i32 %36 to i64
  %38 = getelementptr inbounds ptr, ptr %34, i64 %37
  store ptr %32, ptr %38, align 8
  %39 = getelementptr inbounds nuw %class.TransTableS, ptr %3, i32 0, i32 22
  %40 = load ptr, ptr %39, align 8
  %41 = getelementptr inbounds nuw %class.TransTableS, ptr %3, i32 0, i32 14
  %42 = load i32, ptr %41, align 8
  %43 = sext i32 %42 to i64
  %44 = getelementptr inbounds ptr, ptr %40, i64 %43
  %45 = load ptr, ptr %44, align 8
  %46 = icmp eq ptr %45, null
  br i1 %46, label %47, label %49

47:                                               ; preds = %27
  %48 = getelementptr inbounds nuw %class.TransTableS, ptr %3, i32 0, i32 15
  store i8 1, ptr %48, align 4
  br label %62

49:                                               ; preds = %27
  %50 = getelementptr inbounds nuw %class.TransTableS, ptr %3, i32 0, i32 8
  %51 = load i64, ptr %50, align 8
  %52 = add i64 %51, 400008
  store i64 %52, ptr %50, align 8
  %53 = getelementptr inbounds nuw %class.TransTableS, ptr %3, i32 0, i32 27
  store i32 0, ptr %53, align 8
  %54 = getelementptr inbounds nuw %class.TransTableS, ptr %3, i32 0, i32 22
  %55 = load ptr, ptr %54, align 8
  %56 = getelementptr inbounds nuw %class.TransTableS, ptr %3, i32 0, i32 14
  %57 = load i32, ptr %56, align 8
  %58 = sext i32 %57 to i64
  %59 = getelementptr inbounds ptr, ptr %55, i64 %58
  %60 = load ptr, ptr %59, align 8
  %61 = getelementptr inbounds nuw %class.TransTableS, ptr %3, i32 0, i32 24
  store ptr %60, ptr %61, align 8
  br label %62

62:                                               ; preds = %49, %47
  br label %63

63:                                               ; preds = %62, %25
  br label %68

64:                                               ; preds = %1
  %65 = getelementptr inbounds nuw %class.TransTableS, ptr %3, i32 0, i32 27
  %66 = load i32, ptr %65, align 8
  %67 = add nsw i32 %66, 1
  store i32 %67, ptr %65, align 8
  br label %68

68:                                               ; preds = %64, %63
  ret void
}