; Function Attrs: mustprogress nofree nounwind willreturn uwtable
define void @_ZN11TransTableS10AddNodeSetEv(ptr nocapture noundef nonnull align 8 dereferenceable(2396) %0) local_unnamed_addr #17 align 2 {
  %2 = getelementptr inbounds nuw i8, ptr %0, i64 1800
  %3 = load i32, ptr %2, align 8
  %4 = getelementptr inbounds nuw i8, ptr %0, i64 352
  %5 = load i32, ptr %4, align 8
  %.not = icmp slt i32 %3, %5
  br i1 %.not, label %43, label %6

6:                                                ; preds = %1
  %7 = getelementptr inbounds nuw i8, ptr %0, i64 368
  %8 = load i64, ptr %7, align 8
  %9 = getelementptr inbounds nuw i8, ptr %0, i64 388
  %10 = load i32, ptr %9, align 4
  %11 = sext i32 %10 to i64
  %12 = add i64 %8, %11
  %13 = getelementptr inbounds nuw i8, ptr %0, i64 360
  %14 = load i64, ptr %13, align 8
  %15 = icmp ugt i64 %12, %14
  br i1 %15, label %21, label %16

16:                                               ; preds = %6
  %17 = getelementptr inbounds nuw i8, ptr %0, i64 400
  %18 = load i32, ptr %17, align 8
  %19 = getelementptr inbounds nuw i8, ptr %0, i64 392
  %20 = load i32, ptr %19, align 8
  %.not2 = icmp slt i32 %18, %20
  br i1 %.not2, label %23, label %21

21:                                               ; preds = %16, %6
  %22 = getelementptr inbounds nuw i8, ptr %0, i64 404
  store i8 1, ptr %22, align 4
  br label %45

23:                                               ; preds = %16
  %24 = add nsw i32 %18, 1
  store i32 %24, ptr %17, align 8
  store i32 50000, ptr %4, align 8
  %25 = tail call noalias dereferenceable_or_null(400008) ptr @malloc(i64 noundef 400008) #30
  %26 = getelementptr inbounds nuw i8, ptr %0, i64 880
  %27 = load ptr, ptr %26, align 8
  %28 = sext i32 %24 to i64
  %29 = getelementptr inbounds ptr, ptr %27, i64 %28
  store ptr %25, ptr %29, align 8
  %30 = load ptr, ptr %26, align 8
  %31 = load i32, ptr %17, align 8
  %32 = sext i32 %31 to i64
  %33 = getelementptr inbounds ptr, ptr %30, i64 %32
  %34 = load ptr, ptr %33, align 8
  %35 = icmp eq ptr %34, null
  br i1 %35, label %36, label %38

36:                                               ; preds = %23
  %37 = getelementptr inbounds nuw i8, ptr %0, i64 404
  store i8 1, ptr %37, align 4
  br label %45

38:                                               ; preds = %23
  %39 = load i64, ptr %7, align 8
  %40 = add i64 %39, 400008
  store i64 %40, ptr %7, align 8
  store i32 0, ptr %2, align 8
  %41 = load ptr, ptr %33, align 8
  %42 = getelementptr inbounds nuw i8, ptr %0, i64 1336
  store ptr %41, ptr %42, align 8
  br label %45

43:                                               ; preds = %1
  %44 = add nsw i32 %3, 1
  store i32 %44, ptr %2, align 8
  br label %45

45:                                               ; preds = %21, %38, %36, %43
  ret void
}